target datalayout = "e-m:e-p270:32:32-p271:32:32-p272:64:64-i64:64-i128:128-f80:128-n8:16:32:64-S128"
target triple = "x86_64-pc-linux-gnu"

%struct.t_methoddata_compare = type { ptr, i32, %struct.t_compare_value, %struct.t_compare_value }
%struct.t_compare_value = type { i32, ptr, ptr }

@.str.7 = private unnamed_addr constant [130 x i8] c"generated/home/dtcxzyw/WorkSpace/Projects/compilers/llvm-opt-benchmark/bench/gromacs/gromacs/src/gromacs/selection/sm_compare.cpp\00", align 1
@.str.15 = private unnamed_addr constant [9 x i8] c"d->cmpop\00", align 1
@.str.16 = private unnamed_addr constant [10 x i8] c"d->left.i\00", align 1
@.str.17 = private unnamed_addr constant [10 x i8] c"d->left.r\00", align 1
@.str.18 = private unnamed_addr constant [11 x i8] c"d->right.i\00", align 1
@.str.19 = private unnamed_addr constant [11 x i8] c"d->right.r\00", align 1
@.str.20 = private unnamed_addr constant [2 x i8] c"d\00", align 1

; Function Attrs: inlinehint mustprogress uwtable
define internal void @_ZL14gmx_sfree_implI20t_methoddata_compareEvPKcS2_iPT_(ptr noundef %0, ptr noundef %1, i32 noundef %2, ptr noundef %3) #2 {
  %5 = alloca ptr, align 8
  %6 = alloca ptr, align 8
  %7 = alloca i32, align 4
  %8 = alloca ptr, align 8
  store ptr %0, ptr %5, align 8, !tbaa !35
  store ptr %1, ptr %6, align 8, !tbaa !35
  store i32 %2, ptr %7, align 4, !tbaa !4
  store ptr %3, ptr %8, align 8, !tbaa !11
  %9 = load ptr, ptr %5, align 8, !tbaa !35
  %10 = load ptr, ptr %6, align 8, !tbaa !35
  %11 = load i32, ptr %7, align 4, !tbaa !4
  %12 = load ptr, ptr %8, align 8, !tbaa !11
  call void @_Z9save_freePKcS0_iPv(ptr noundef %9, ptr noundef %10, i32 noundef %11, ptr noundef %12)
  ret void
}

; Function Attrs: inlinehint mustprogress uwtable
define internal void @_ZL14gmx_sfree_implIfEvPKcS1_iPT_(ptr noundef %0, ptr noundef %1, i32 noundef %2, ptr noundef %3) #2 {
  %5 = alloca ptr, align 8
  %6 = alloca ptr, align 8
  %7 = alloca i32, align 4
  %8 = alloca ptr, align 8
  store ptr %0, ptr %5, align 8, !tbaa !35
  store ptr %1, ptr %6, align 8, !tbaa !35
  store i32 %2, ptr %7, align 4, !tbaa !4
  store ptr %3, ptr %8, align 8, !tbaa !63
  %9 = load ptr, ptr %5, align 8, !tbaa !35
  %10 = load ptr, ptr %6, align 8, !tbaa !35
  %11 = load i32, ptr %7, align 4, !tbaa !4
  %12 = load ptr, ptr %8, align 8, !tbaa !63
  call void @_Z9save_freePKcS0_iPv(ptr noundef %9, ptr noundef %10, i32 noundef %11, ptr noundef %12)
  ret void
}

; Function Attrs: inlinehint mustprogress uwtable
define internal void @_ZL14gmx_sfree_implIiEvPKcS1_iPT_(ptr noundef %0, ptr noundef %1, i32 noundef %2, ptr noundef %3) #2 {
  %5 = alloca ptr, align 8
  %6 = alloca ptr, align 8
  %7 = alloca i32, align 4
  %8 = alloca ptr, align 8
  store ptr %0, ptr %5, align 8, !tbaa !35
  store ptr %1, ptr %6, align 8, !tbaa !35
  store i32 %2, ptr %7, align 4, !tbaa !4
  store ptr %3, ptr %8, align 8, !tbaa !73
  %9 = load ptr, ptr %5, align 8, !tbaa !35
  %10 = load ptr, ptr %6, align 8, !tbaa !35
  %11 = load i32, ptr %7, align 4, !tbaa !4
  %12 = load ptr, ptr %8, align 8, !tbaa !73
  call void @_Z9save_freePKcS0_iPv(ptr noundef %9, ptr noundef %10, i32 noundef %11, ptr noundef %12)
  ret void
}

; Function Attrs: inlinehint mustprogress uwtable
define internal void @_ZL14gmx_sfree_implIcEvPKcS1_iPT_(ptr noundef %0, ptr noundef %1, i32 noundef %2, ptr noundef %3) #2 {
  %5 = alloca ptr, align 8
  %6 = alloca ptr, align 8
  %7 = alloca i32, align 4
  %8 = alloca ptr, align 8
  store ptr %0, ptr %5, align 8, !tbaa !35
  store ptr %1, ptr %6, align 8, !tbaa !35
  store i32 %2, ptr %7, align 4, !tbaa !4
  store ptr %3, ptr %8, align 8, !tbaa !35
  %9 = load ptr, ptr %5, align 8, !tbaa !35
  %10 = load ptr, ptr %6, align 8, !tbaa !35
  %11 = load i32, ptr %7, align 4, !tbaa !4
  %12 = load ptr, ptr %8, align 8, !tbaa !35
  call void @_Z9save_freePKcS0_iPv(ptr noundef %9, ptr noundef %10, i32 noundef %11, ptr noundef %12)
  ret void
}

; Function Attrs: mustprogress uwtable
define internal void @_ZL17free_data_comparePv(ptr noundef %0) #0 {
  %2 = alloca ptr, align 8
  %3 = alloca ptr, align 8
  store ptr %0, ptr %2, align 8, !tbaa !11
  call void @llvm.lifetime.start.p0(i64 8, ptr %3) #17
  %4 = load ptr, ptr %2, align 8, !tbaa !11
  store ptr %4, ptr %3, align 8, !tbaa !11
  %5 = load ptr, ptr %3, align 8, !tbaa !11
  %6 = getelementptr inbounds nuw %struct.t_methoddata_compare, ptr %5, i32 0, i32 0
  %7 = load ptr, ptr %6, align 8, !tbaa !15
  call void @_ZL14gmx_sfree_implIcEvPKcS1_iPT_(ptr noundef @.str.15, ptr noundef @.str.7, i32 noundef 482, ptr noundef %7)
  %8 = load ptr, ptr %3, align 8, !tbaa !11
  %9 = getelementptr inbounds nuw %struct.t_methoddata_compare, ptr %8, i32 0, i32 2
  %10 = getelementptr inbounds nuw %struct.t_compare_value, ptr %9, i32 0, i32 0
  %11 = load i32, ptr %10, align 8, !tbaa !23
  %12 = and i32 %11, 16
  %13 = icmp ne i32 %12, 0
  br i1 %13, label %14, label %19

14:                                               ; preds = %1
  %15 = load ptr, ptr %3, align 8, !tbaa !11
  %16 = getelementptr inbounds nuw %struct.t_methoddata_compare, ptr %15, i32 0, i32 2
  %17 = getelementptr inbounds nuw %struct.t_compare_value, ptr %16, i32 0, i32 1
  %18 = load ptr, ptr %17, align 8, !tbaa !27
  call void @_ZL14gmx_sfree_implIiEvPKcS1_iPT_(ptr noundef @.str.16, ptr noundef @.str.7, i32 noundef 485, ptr noundef %18)
  br label %19

19:                                               ; preds = %14, %1
  %20 = load ptr, ptr %3, align 8, !tbaa !11
  %21 = getelementptr inbounds nuw %struct.t_methoddata_compare, ptr %20, i32 0, i32 2
  %22 = getelementptr inbounds nuw %struct.t_compare_value, ptr %21, i32 0, i32 0
  %23 = load i32, ptr %22, align 8, !tbaa !23
  %24 = and i32 %23, 32
  %25 = icmp ne i32 %24, 0
  br i1 %25, label %26, label %31

26:                                               ; preds = %19
  %27 = load ptr, ptr %3, align 8, !tbaa !11
  %28 = getelementptr inbounds nuw %struct.t_methoddata_compare, ptr %27, i32 0, i32 2
  %29 = getelementptr inbounds nuw %struct.t_compare_value, ptr %28, i32 0, i32 2
  %30 = load ptr, ptr %29, align 8, !tbaa !26
  call void @_ZL14gmx_sfree_implIfEvPKcS1_iPT_(ptr noundef @.str.17, ptr noundef @.str.7, i32 noundef 489, ptr noundef %30)
  br label %31

31:                                               ; preds = %26, %19
  %32 = load ptr, ptr %3, align 8, !tbaa !11
  %33 = getelementptr inbounds nuw %struct.t_methoddata_compare, ptr %32, i32 0, i32 3
  %34 = getelementptr inbounds nuw %struct.t_compare_value, ptr %33, i32 0, i32 0
  %35 = load i32, ptr %34, align 8, !tbaa !24
  %36 = and i32 %35, 16
  %37 = icmp ne i32 %36, 0
  br i1 %37, label %38, label %43

38:                                               ; preds = %31
  %39 = load ptr, ptr %3, align 8, !tbaa !11
  %40 = getelementptr inbounds nuw %struct.t_methoddata_compare, ptr %39, i32 0, i32 3
  %41 = getelementptr inbounds nuw %struct.t_compare_value, ptr %40, i32 0, i32 1
  %42 = load ptr, ptr %41, align 8, !tbaa !28
  call void @_ZL14gmx_sfree_implIiEvPKcS1_iPT_(ptr noundef @.str.18, ptr noundef @.str.7, i32 noundef 493, ptr noundef %42)
  br label %43

43:                                               ; preds = %38, %31
  %44 = load ptr, ptr %3, align 8, !tbaa !11
  %45 = getelementptr inbounds nuw %struct.t_methoddata_compare, ptr %44, i32 0, i32 3
  %46 = getelementptr inbounds nuw %struct.t_compare_value, ptr %45, i32 0, i32 0
  %47 = load i32, ptr %46, align 8, !tbaa !24
  %48 = and i32 %47, 32
  %49 = icmp ne i32 %48, 0
  br i1 %49, label %50, label %55

50:                                               ; preds = %43
  %51 = load ptr, ptr %3, align 8, !tbaa !11
  %52 = getelementptr inbounds nuw %struct.t_methoddata_compare, ptr %51, i32 0, i32 3
  %53 = getelementptr inbounds nuw %struct.t_compare_value, ptr %52, i32 0, i32 2
  %54 = load ptr, ptr %53, align 8, !tbaa !25
  call void @_ZL14gmx_sfree_implIfEvPKcS1_iPT_(ptr noundef @.str.19, ptr noundef @.str.7, i32 noundef 497, ptr noundef %54)
  br label %55

55:                                               ; preds = %50, %43
  %56 = load ptr, ptr %3, align 8, !tbaa !11
  call void @_ZL14gmx_sfree_implI20t_methoddata_compareEvPKcS2_iPT_(ptr noundef @.str.20, ptr noundef @.str.7, i32 noundef 499, ptr noundef %56)
  call void @llvm.lifetime.end.p0(i64 8, ptr %3) #17
  ret void
}