; Function Attrs: mustprogress uwtable
define internal void @_ZL17free_data_comparePv(ptr noundef %0) #0 {
  %2 = load ptr, ptr %0, align 8, !tbaa !21
  tail call void @_Z9save_freePKcS0_iPv(ptr noundef nonnull @.str.15, ptr noundef nonnull @.str.7, i32 noundef 482, ptr noundef %2)
  %3 = getelementptr inbounds nuw i8, ptr %0, i64 16
  %4 = load i32, ptr %3, align 8, !tbaa !37
  %5 = and i32 %4, 16
  %.not = icmp eq i32 %5, 0
  br i1 %.not, label %9, label %6

6:                                                ; preds = %1
  %7 = getelementptr inbounds nuw i8, ptr %0, i64 24
  %8 = load ptr, ptr %7, align 8, !tbaa !35
  tail call void @_Z9save_freePKcS0_iPv(ptr noundef nonnull @.str.16, ptr noundef nonnull @.str.7, i32 noundef 485, ptr noundef %8)
  %.pre = load i32, ptr %3, align 8, !tbaa !37
  br label %9

9:                                                ; preds = %6, %1
  %10 = phi i32 [ %.pre, %6 ], [ %4, %1 ]
  %11 = and i32 %10, 32
  %.not11 = icmp eq i32 %11, 0
  br i1 %.not11, label %15, label %12

12:                                               ; preds = %9
  %13 = getelementptr inbounds nuw i8, ptr %0, i64 32
  %14 = load ptr, ptr %13, align 8, !tbaa !34
  tail call void @_Z9save_freePKcS0_iPv(ptr noundef nonnull @.str.17, ptr noundef nonnull @.str.7, i32 noundef 489, ptr noundef %14)
  br label %15

15:                                               ; preds = %12, %9
  %16 = getelementptr inbounds nuw i8, ptr %0, i64 40
  %17 = load i32, ptr %16, align 8, !tbaa !38
  %18 = and i32 %17, 16
  %.not12 = icmp eq i32 %18, 0
  br i1 %.not12, label %22, label %19

19:                                               ; preds = %15
  %20 = getelementptr inbounds nuw i8, ptr %0, i64 48
  %21 = load ptr, ptr %20, align 8, !tbaa !36
  tail call void @_Z9save_freePKcS0_iPv(ptr noundef nonnull @.str.18, ptr noundef nonnull @.str.7, i32 noundef 493, ptr noundef %21)
  %.pre14 = load i32, ptr %16, align 8, !tbaa !38
  br label %22

22:                                               ; preds = %19, %15
  %23 = phi i32 [ %.pre14, %19 ], [ %17, %15 ]
  %24 = and i32 %23, 32
  %.not13 = icmp eq i32 %24, 0
  br i1 %.not13, label %28, label %25

25:                                               ; preds = %22
  %26 = getelementptr inbounds nuw i8, ptr %0, i64 56
  %27 = load ptr, ptr %26, align 8, !tbaa !33
  tail call void @_Z9save_freePKcS0_iPv(ptr noundef nonnull @.str.19, ptr noundef nonnull @.str.7, i32 noundef 497, ptr noundef %27)
  br label %28

28:                                               ; preds = %25, %22
  tail call void @_Z9save_freePKcS0_iPv(ptr noundef nonnull @.str.20, ptr noundef nonnull @.str.7, i32 noundef 499, ptr noundef nonnull %0)
  ret void
}